; Function Attrs: mustprogress nofree norecurse nosync nounwind willreturn memory(read, inaccessiblemem: none) uwtable
define noundef i32 @_ZNK9grpc_core12EvaluateArgs11GetPeerPortEv(ptr noundef nonnull readonly align 8 captures(none) dereferenceable(16) %0) local_unnamed_addr #6 align 2 {
  %2 = getelementptr inbounds nuw i8, ptr %0, i64 8
  %3 = load ptr, ptr %2, align 8, !tbaa !52
  %4 = icmp eq ptr %3, null
  br i1 %4, label %8, label %5

5:                                                ; preds = %1
  %6 = getelementptr inbounds nuw i8, ptr %3, i64 456
  %7 = load i32, ptr %6, align 8, !tbaa !59
  br label %8

8:                                                ; preds = %1, %5
  %.0 = phi i32 [ %7, %5 ], [ 0, %1 ]
  ret i32 %.0
}